target datalayout = "e-m:e-p270:32:32-p271:32:32-p272:64:64-i64:64-i128:128-f80:128-n8:16:32:64-S128"
target triple = "x86_64-pc-linux-gnu"

%"class.std::locale" = type { ptr }
%"class.absl::Span" = type { ptr, i64 }
%"class.absl::log_internal::LogMessage" = type { %"class.absl::base_internal::ErrnoSaver", %"class.std::unique_ptr" }
%"class.absl::base_internal::ErrnoSaver" = type { i32 }
%"class.std::unique_ptr" = type { %"struct.std::__uniq_ptr_data" }
%"struct.std::__uniq_ptr_data" = type { %"class.std::__uniq_ptr_impl" }
%"class.std::__uniq_ptr_impl" = type { %"class.std::tuple" }
%"class.std::tuple" = type { %"struct.std::_Tuple_impl" }
%"struct.std::_Tuple_impl" = type { %"struct.std::_Head_base.1" }
%"struct.std::_Head_base.1" = type { ptr }
%"struct.absl::log_internal::LogMessage::LogMessageData" = type { %"class.absl::LogEntry", i8, i8, i8, %"class.absl::InlinedVector", i8, %"class.std::basic_ostream", %"struct.std::array", %"class.absl::Span", %"struct.std::array" }
%"class.absl::LogEntry" = type { %"class.std::basic_string_view", %"class.std::basic_string_view", i32, i8, i32, i32, %"class.absl::Time", i32, %"class.absl::Span.2", i64, %"class.std::basic_string_view", %"class.std::__cxx11::basic_string" }
%"class.absl::Time" = type { %"class.absl::Duration" }
%"class.absl::Duration" = type { %"class.absl::Duration::HiRep", i32 }
%"class.absl::Duration::HiRep" = type { i32, i32 }
%"class.absl::Span.2" = type { ptr, i64 }
%"class.std::basic_string_view" = type { i64, ptr }
%"class.std::__cxx11::basic_string" = type { %"struct.std::__cxx11::basic_string<char>::_Alloc_hider", i64, %union.anon }
%"struct.std::__cxx11::basic_string<char>::_Alloc_hider" = type { ptr }
%union.anon = type { i64, [8 x i8] }
%"class.absl::InlinedVector" = type { %"class.absl::inlined_vector_internal::Storage" }
%"class.absl::inlined_vector_internal::Storage" = type { %"class.absl::container_internal::CompressedTuple", %"union.absl::inlined_vector_internal::Storage<absl::LogSink *, 16, std::allocator<absl::LogSink *>>::Data" }
%"class.absl::container_internal::CompressedTuple" = type { %"struct.absl::container_internal::internal_compressed_tuple::CompressedTupleImpl" }
%"struct.absl::container_internal::internal_compressed_tuple::CompressedTupleImpl" = type { %"struct.absl::container_internal::internal_compressed_tuple::Storage.6" }
%"struct.absl::container_internal::internal_compressed_tuple::Storage.6" = type { i64 }
%"union.absl::inlined_vector_internal::Storage<absl::LogSink *, 16, std::allocator<absl::LogSink *>>::Data" = type { %"struct.absl::inlined_vector_internal::Storage<absl::LogSink *, 16, std::allocator<absl::LogSink *>>::Allocated", [112 x i8] }
%"struct.absl::inlined_vector_internal::Storage<absl::LogSink *, 16, std::allocator<absl::LogSink *>>::Allocated" = type { ptr, i64 }
%"class.std::basic_ostream" = type { ptr, %"class.std::basic_ios" }
%"class.std::basic_ios" = type { %"class.std::ios_base", ptr, i8, i8, ptr, ptr, ptr, ptr }
%"class.std::ios_base" = type { ptr, i64, i64, i32, i32, i32, ptr, %"struct.std::ios_base::_Words", [8 x %"struct.std::ios_base::_Words"], i32, ptr, %"class.std::locale" }
%"struct.std::ios_base::_Words" = type { ptr, i64 }
%"struct.std::array" = type { [15000 x i8] }

; Function Attrs: mustprogress nounwind uwtable
define linkonce_odr dso_local noundef nonnull align 8 dereferenceable(8) ptr @_ZNSt10_Head_baseILm0EPN4absl12log_internal10LogMessage14LogMessageDataELb0EE7_M_headERKS5_(ptr noundef nonnull align 8 dereferenceable(8) %0) #3 comdat align 2 {
  %2 = alloca ptr, align 8
  store ptr %0, ptr %2, align 8, !tbaa !252
  %3 = load ptr, ptr %2, align 8, !tbaa !252
  %4 = getelementptr inbounds nuw %"struct.std::_Head_base.1", ptr %3, i32 0, i32 0
  ret ptr %4
}

; Function Attrs: mustprogress nounwind uwtable
define linkonce_odr dso_local noundef nonnull align 8 dereferenceable(8) ptr @_ZNSt11_Tuple_implILm0EJPN4absl12log_internal10LogMessage14LogMessageDataESt14default_deleteIS3_EEE7_M_headERKS7_(ptr noundef nonnull align 8 dereferenceable(8) %0) #3 comdat align 2 {
  %2 = alloca ptr, align 8
  store ptr %0, ptr %2, align 8, !tbaa !248
  %3 = load ptr, ptr %2, align 8, !tbaa !248
  %4 = call noundef nonnull align 8 dereferenceable(8) ptr @_ZNSt10_Head_baseILm0EPN4absl12log_internal10LogMessage14LogMessageDataELb0EE7_M_headERKS5_(ptr noundef nonnull align 8 dereferenceable(8) %3) #24
  ret ptr %4
}

; Function Attrs: mustprogress nounwind uwtable
define linkonce_odr dso_local noundef nonnull align 8 dereferenceable(8) ptr @_ZSt12__get_helperILm0EPN4absl12log_internal10LogMessage14LogMessageDataEJSt14default_deleteIS3_EEERKT0_RKSt11_Tuple_implIXT_EJS7_DpT1_EE(ptr noundef nonnull align 8 dereferenceable(8) %0) #3 comdat {
  %2 = alloca ptr, align 8
  store ptr %0, ptr %2, align 8, !tbaa !248
  %3 = load ptr, ptr %2, align 8, !tbaa !248
  %4 = call noundef nonnull align 8 dereferenceable(8) ptr @_ZNSt11_Tuple_implILm0EJPN4absl12log_internal10LogMessage14LogMessageDataESt14default_deleteIS3_EEE7_M_headERKS7_(ptr noundef nonnull align 8 dereferenceable(8) %3) #24
  ret ptr %4
}

; Function Attrs: mustprogress nounwind uwtable
define linkonce_odr dso_local noundef nonnull align 8 dereferenceable(8) ptr @_ZSt3getILm0EJPN4absl12log_internal10LogMessage14LogMessageDataESt14default_deleteIS3_EEERKNSt13tuple_elementIXT_ESt5tupleIJDpT0_EEE4typeERKSB_(ptr noundef nonnull align 8 dereferenceable(8) %0) #3 comdat {
  %2 = alloca ptr, align 8
  store ptr %0, ptr %2, align 8, !tbaa !246
  %3 = load ptr, ptr %2, align 8, !tbaa !246
  %4 = call noundef nonnull align 8 dereferenceable(8) ptr @_ZSt12__get_helperILm0EPN4absl12log_internal10LogMessage14LogMessageDataEJSt14default_deleteIS3_EEERKT0_RKSt11_Tuple_implIXT_EJS7_DpT1_EE(ptr noundef nonnull align 8 dereferenceable(8) %3) #24
  ret ptr %4
}

; Function Attrs: mustprogress nounwind uwtable
define linkonce_odr dso_local noundef ptr @_ZNKSt15__uniq_ptr_implIN4absl12log_internal10LogMessage14LogMessageDataESt14default_deleteIS3_EE6_M_ptrEv(ptr noundef nonnull align 8 dereferenceable(8) %0) #3 comdat align 2 {
  %2 = alloca ptr, align 8
  store ptr %0, ptr %2, align 8, !tbaa !244
  %3 = load ptr, ptr %2, align 8
  %4 = getelementptr inbounds nuw %"class.std::__uniq_ptr_impl", ptr %3, i32 0, i32 0
  %5 = call noundef nonnull align 8 dereferenceable(8) ptr @_ZSt3getILm0EJPN4absl12log_internal10LogMessage14LogMessageDataESt14default_deleteIS3_EEERKNSt13tuple_elementIXT_ESt5tupleIJDpT0_EEE4typeERKSB_(ptr noundef nonnull align 8 dereferenceable(8) %4) #24
  %6 = load ptr, ptr %5, align 8, !tbaa !62
  ret ptr %6
}

; Function Attrs: mustprogress nounwind uwtable
define linkonce_odr dso_local noundef ptr @_ZNKSt10unique_ptrIN4absl12log_internal10LogMessage14LogMessageDataESt14default_deleteIS3_EE3getEv(ptr noundef nonnull align 8 dereferenceable(8) %0) #3 comdat align 2 {
  %2 = alloca ptr, align 8
  store ptr %0, ptr %2, align 8, !tbaa !14
  %3 = load ptr, ptr %2, align 8
  %4 = getelementptr inbounds nuw %"class.std::unique_ptr", ptr %3, i32 0, i32 0
  %5 = call noundef ptr @_ZNKSt15__uniq_ptr_implIN4absl12log_internal10LogMessage14LogMessageDataESt14default_deleteIS3_EE6_M_ptrEv(ptr noundef nonnull align 8 dereferenceable(8) %4) #24
  ret ptr %5
}

; Function Attrs: mustprogress nounwind uwtable
define linkonce_odr dso_local noundef ptr @_ZNKSt10unique_ptrIN4absl12log_internal10LogMessage14LogMessageDataESt14default_deleteIS3_EEptEv(ptr noundef nonnull align 8 dereferenceable(8) %0) #3 comdat align 2 {
  %2 = alloca ptr, align 8
  store ptr %0, ptr %2, align 8, !tbaa !14
  %3 = load ptr, ptr %2, align 8
  %4 = call noundef ptr @_ZNKSt10unique_ptrIN4absl12log_internal10LogMessage14LogMessageDataESt14default_deleteIS3_EE3getEv(ptr noundef nonnull align 8 dereferenceable(8) %3) #24
  ret ptr %4
}

; Function Attrs: mustprogress nounwind uwtable
define dso_local noundef nonnull align 8 dereferenceable(16) ptr @_ZN4absl12log_internal10LogMessage16WithMetadataFromERKNS_8LogEntryE(ptr noundef nonnull align 8 dereferenceable(16) %0, ptr noundef nonnull align 8 dereferenceable(136) %1) #3 align 2 {
  %3 = alloca ptr, align 8
  %4 = alloca ptr, align 8
  store ptr %0, ptr %3, align 8, !tbaa !9
  store ptr %1, ptr %4, align 8, !tbaa !4
  %5 = load ptr, ptr %3, align 8
  %6 = load ptr, ptr %4, align 8, !tbaa !4
  %7 = getelementptr inbounds nuw %"class.absl::LogEntry", ptr %6, i32 0, i32 0
  %8 = getelementptr inbounds nuw %"class.absl::log_internal::LogMessage", ptr %5, i32 0, i32 1
  %9 = call noundef ptr @_ZNKSt10unique_ptrIN4absl12log_internal10LogMessage14LogMessageDataESt14default_deleteIS3_EEptEv(ptr noundef nonnull align 8 dereferenceable(8) %8) #24
  %10 = getelementptr inbounds nuw %"struct.absl::log_internal::LogMessage::LogMessageData", ptr %9, i32 0, i32 0
  %11 = getelementptr inbounds nuw %"class.absl::LogEntry", ptr %10, i32 0, i32 0
  call void @llvm.memcpy.p0.p0.i64(ptr align 8 %11, ptr align 8 %7, i64 16, i1 false), !tbaa.struct !61
  %12 = load ptr, ptr %4, align 8, !tbaa !4
  %13 = getelementptr inbounds nuw %"class.absl::LogEntry", ptr %12, i32 0, i32 1
  %14 = getelementptr inbounds nuw %"class.absl::log_internal::LogMessage", ptr %5, i32 0, i32 1
  %15 = call noundef ptr @_ZNKSt10unique_ptrIN4absl12log_internal10LogMessage14LogMessageDataESt14default_deleteIS3_EEptEv(ptr noundef nonnull align 8 dereferenceable(8) %14) #24
  %16 = getelementptr inbounds nuw %"struct.absl::log_internal::LogMessage::LogMessageData", ptr %15, i32 0, i32 0
  %17 = getelementptr inbounds nuw %"class.absl::LogEntry", ptr %16, i32 0, i32 1
  call void @llvm.memcpy.p0.p0.i64(ptr align 8 %17, ptr align 8 %13, i64 16, i1 false), !tbaa.struct !61
  %18 = load ptr, ptr %4, align 8, !tbaa !4
  %19 = getelementptr inbounds nuw %"class.absl::LogEntry", ptr %18, i32 0, i32 2
  %20 = load i32, ptr %19, align 8, !tbaa !112
  %21 = getelementptr inbounds nuw %"class.absl::log_internal::LogMessage", ptr %5, i32 0, i32 1
  %22 = call noundef ptr @_ZNKSt10unique_ptrIN4absl12log_internal10LogMessage14LogMessageDataESt14default_deleteIS3_EEptEv(ptr noundef nonnull align 8 dereferenceable(8) %21) #24
  %23 = getelementptr inbounds nuw %"struct.absl::log_internal::LogMessage::LogMessageData", ptr %22, i32 0, i32 0
  %24 = getelementptr inbounds nuw %"class.absl::LogEntry", ptr %23, i32 0, i32 2
  store i32 %20, ptr %24, align 8, !tbaa !91
  %25 = load ptr, ptr %4, align 8, !tbaa !4
  %26 = getelementptr inbounds nuw %"class.absl::LogEntry", ptr %25, i32 0, i32 3
  %27 = load i8, ptr %26, align 4, !tbaa !125, !range !58, !noundef !59
  %28 = trunc i8 %27 to i1
  %29 = getelementptr inbounds nuw %"class.absl::log_internal::LogMessage", ptr %5, i32 0, i32 1
  %30 = call noundef ptr @_ZNKSt10unique_ptrIN4absl12log_internal10LogMessage14LogMessageDataESt14default_deleteIS3_EEptEv(ptr noundef nonnull align 8 dereferenceable(8) %29) #24
  %31 = getelementptr inbounds nuw %"struct.absl::log_internal::LogMessage::LogMessageData", ptr %30, i32 0, i32 0
  %32 = getelementptr inbounds nuw %"class.absl::LogEntry", ptr %31, i32 0, i32 3
  %33 = zext i1 %28 to i8
  store i8 %33, ptr %32, align 4, !tbaa !92
  %34 = load ptr, ptr %4, align 8, !tbaa !4
  %35 = getelementptr inbounds nuw %"class.absl::LogEntry", ptr %34, i32 0, i32 4
  %36 = load i32, ptr %35, align 8, !tbaa !113
  %37 = getelementptr inbounds nuw %"class.absl::log_internal::LogMessage", ptr %5, i32 0, i32 1
  %38 = call noundef ptr @_ZNKSt10unique_ptrIN4absl12log_internal10LogMessage14LogMessageDataESt14default_deleteIS3_EEptEv(ptr noundef nonnull align 8 dereferenceable(8) %37) #24
  %39 = getelementptr inbounds nuw %"struct.absl::log_internal::LogMessage::LogMessageData", ptr %38, i32 0, i32 0
  %40 = getelementptr inbounds nuw %"class.absl::LogEntry", ptr %39, i32 0, i32 4
  store i32 %36, ptr %40, align 8, !tbaa !93
  %41 = load ptr, ptr %4, align 8, !tbaa !4
  %42 = getelementptr inbounds nuw %"class.absl::LogEntry", ptr %41, i32 0, i32 5
  %43 = load i32, ptr %42, align 4, !tbaa !114
  %44 = getelementptr inbounds nuw %"class.absl::log_internal::LogMessage", ptr %5, i32 0, i32 1
  %45 = call noundef ptr @_ZNKSt10unique_ptrIN4absl12log_internal10LogMessage14LogMessageDataESt14default_deleteIS3_EEptEv(ptr noundef nonnull align 8 dereferenceable(8) %44) #24
  %46 = getelementptr inbounds nuw %"struct.absl::log_internal::LogMessage::LogMessageData", ptr %45, i32 0, i32 0
  %47 = getelementptr inbounds nuw %"class.absl::LogEntry", ptr %46, i32 0, i32 5
  store i32 %43, ptr %47, align 4, !tbaa !94
  %48 = load ptr, ptr %4, align 8, !tbaa !4
  %49 = getelementptr inbounds nuw %"class.absl::LogEntry", ptr %48, i32 0, i32 6
  %50 = getelementptr inbounds nuw %"class.absl::log_internal::LogMessage", ptr %5, i32 0, i32 1
  %51 = call noundef ptr @_ZNKSt10unique_ptrIN4absl12log_internal10LogMessage14LogMessageDataESt14default_deleteIS3_EEptEv(ptr noundef nonnull align 8 dereferenceable(8) %50) #24
  %52 = getelementptr inbounds nuw %"struct.absl::log_internal::LogMessage::LogMessageData", ptr %51, i32 0, i32 0
  %53 = getelementptr inbounds nuw %"class.absl::LogEntry", ptr %52, i32 0, i32 6
  call void @llvm.memcpy.p0.p0.i64(ptr align 8 %53, ptr align 8 %49, i64 12, i1 false), !tbaa.struct !95
  %54 = load ptr, ptr %4, align 8, !tbaa !4
  %55 = getelementptr inbounds nuw %"class.absl::LogEntry", ptr %54, i32 0, i32 7
  %56 = load i32, ptr %55, align 4, !tbaa !115
  %57 = getelementptr inbounds nuw %"class.absl::log_internal::LogMessage", ptr %5, i32 0, i32 1
  %58 = call noundef ptr @_ZNKSt10unique_ptrIN4absl12log_internal10LogMessage14LogMessageDataESt14default_deleteIS3_EEptEv(ptr noundef nonnull align 8 dereferenceable(8) %57) #24
  %59 = getelementptr inbounds nuw %"struct.absl::log_internal::LogMessage::LogMessageData", ptr %58, i32 0, i32 0
  %60 = getelementptr inbounds nuw %"class.absl::LogEntry", ptr %59, i32 0, i32 7
  store i32 %56, ptr %60, align 4, !tbaa !96
  ret ptr %5
}