; Function Attrs: mustprogress nofree norecurse nosync nounwind willreturn memory(readwrite, inaccessiblemem: none) uwtable
define dso_local noundef nonnull align 8 dereferenceable(16) ptr @_ZN4absl12log_internal10LogMessage16WithMetadataFromERKNS_8LogEntryE(ptr noundef nonnull readonly returned align 8 captures(ret: address, provenance) dereferenceable(16) %0, ptr noundef nonnull readonly align 8 captures(none) dereferenceable(136) %1) local_unnamed_addr #14 align 2 {
  %3 = getelementptr inbounds nuw i8, ptr %0, i64 8
  %4 = load ptr, ptr %3, align 8, !tbaa !4
  tail call void @llvm.memcpy.p0.p0.i64(ptr noundef nonnull align 8 dereferenceable(16) %4, ptr noundef nonnull align 8 dereferenceable(16) %1, i64 16, i1 false), !tbaa.struct !112
  %5 = getelementptr inbounds nuw i8, ptr %1, i64 16
  %6 = load ptr, ptr %3, align 8, !tbaa !4
  %7 = getelementptr inbounds nuw i8, ptr %6, i64 16
  tail call void @llvm.memcpy.p0.p0.i64(ptr noundef nonnull align 8 dereferenceable(16) %7, ptr noundef nonnull align 8 dereferenceable(16) %5, i64 16, i1 false), !tbaa.struct !112
  %8 = getelementptr inbounds nuw i8, ptr %1, i64 32
  %9 = load i32, ptr %8, align 8, !tbaa !90
  %10 = load ptr, ptr %3, align 8, !tbaa !4
  %11 = getelementptr inbounds nuw i8, ptr %10, i64 32
  store i32 %9, ptr %11, align 8, !tbaa !84
  %12 = getelementptr inbounds nuw i8, ptr %1, i64 36
  %13 = load i8, ptr %12, align 4, !tbaa !96, !range !41, !noundef !42
  %14 = getelementptr inbounds nuw i8, ptr %10, i64 36
  store i8 %13, ptr %14, align 4, !tbaa !85
  %15 = getelementptr inbounds nuw i8, ptr %1, i64 40
  %16 = load i32, ptr %15, align 8, !tbaa !91
  %17 = getelementptr inbounds nuw i8, ptr %10, i64 40
  store i32 %16, ptr %17, align 8, !tbaa !86
  %18 = getelementptr inbounds nuw i8, ptr %1, i64 44
  %19 = load i32, ptr %18, align 4, !tbaa !92
  %20 = getelementptr inbounds nuw i8, ptr %10, i64 44
  store i32 %19, ptr %20, align 4, !tbaa !87
  %21 = getelementptr inbounds nuw i8, ptr %1, i64 48
  %22 = getelementptr inbounds nuw i8, ptr %10, i64 48
  tail call void @llvm.memcpy.p0.p0.i64(ptr noundef nonnull align 8 dereferenceable(12) %22, ptr noundef nonnull align 8 dereferenceable(12) %21, i64 12, i1 false), !tbaa.struct !113
  %23 = getelementptr inbounds nuw i8, ptr %1, i64 60
  %24 = load i32, ptr %23, align 4, !tbaa !93
  %25 = load ptr, ptr %3, align 8, !tbaa !4
  %26 = getelementptr inbounds nuw i8, ptr %25, i64 60
  store i32 %24, ptr %26, align 4, !tbaa !88
  ret ptr %0
}